target datalayout = "e-m:e-p270:32:32-p271:32:32-p272:64:64-i64:64-i128:128-f80:128-n8:16:32:64-S128"
target triple = "x86_64-pc-linux-gnu"

%struct.pmix_value = type { i16, %union.anon }
%union.anon = type { %struct.pmix_envar_t }
%struct.pmix_envar_t = type { ptr, ptr, i8 }

; Function Attrs: nounwind uwtable
define i32 @pmix20_bfrop_unpack_value(ptr noundef %0, ptr noundef %1, ptr noundef %2, ptr noundef %3, i16 noundef zeroext %4) #0 {
  %6 = alloca i32, align 4
  %7 = alloca ptr, align 8
  %8 = alloca ptr, align 8
  %9 = alloca ptr, align 8
  %10 = alloca ptr, align 8
  %11 = alloca i16, align 2
  %12 = alloca ptr, align 8
  %13 = alloca i32, align 4
  %14 = alloca i32, align 4
  %15 = alloca i32, align 4
  %16 = alloca i32, align 4
  store ptr %0, ptr %7, align 8, !tbaa !13
  store ptr %1, ptr %8, align 8, !tbaa !3
  store ptr %2, ptr %9, align 8, !tbaa !3
  store ptr %3, ptr %10, align 8, !tbaa !7
  store i16 %4, ptr %11, align 2, !tbaa !9
  call void @llvm.lifetime.start.p0(i64 8, ptr %12) #11
  call void @llvm.lifetime.start.p0(i64 4, ptr %13) #11
  call void @llvm.lifetime.start.p0(i64 4, ptr %14) #11
  call void @llvm.lifetime.start.p0(i64 4, ptr %15) #11
  %17 = load ptr, ptr %9, align 8, !tbaa !3
  store ptr %17, ptr %12, align 8, !tbaa !96
  %18 = load ptr, ptr %10, align 8, !tbaa !7
  %19 = load i32, ptr %18, align 4, !tbaa !11
  store i32 %19, ptr %14, align 4, !tbaa !11
  store i32 0, ptr %13, align 4, !tbaa !11
  br label %20

20:                                               ; preds = %48, %5
  %21 = load i32, ptr %13, align 4, !tbaa !11
  %22 = load i32, ptr %14, align 4, !tbaa !11
  %23 = icmp slt i32 %21, %22
  br i1 %23, label %24, label %51

24:                                               ; preds = %20
  %25 = load ptr, ptr %7, align 8, !tbaa !13
  %26 = load ptr, ptr %8, align 8, !tbaa !3
  %27 = load ptr, ptr %12, align 8, !tbaa !96
  %28 = load i32, ptr %13, align 4, !tbaa !11
  %29 = sext i32 %28 to i64
  %30 = getelementptr inbounds %struct.pmix_value, ptr %27, i64 %29
  %31 = getelementptr inbounds nuw %struct.pmix_value, ptr %30, i32 0, i32 0
  %32 = call i32 @pmix20_bfrop_get_data_type(ptr noundef %25, ptr noundef %26, ptr noundef %31)
  store i32 %32, ptr %15, align 4, !tbaa !11
  %33 = icmp ne i32 0, %32
  br i1 %33, label %34, label %36

34:                                               ; preds = %24
  %35 = load i32, ptr %15, align 4, !tbaa !11
  store i32 %35, ptr %6, align 4
  store i32 1, ptr %16, align 4
  br label %52

36:                                               ; preds = %24
  %37 = load ptr, ptr %7, align 8, !tbaa !13
  %38 = load ptr, ptr %8, align 8, !tbaa !3
  %39 = load ptr, ptr %12, align 8, !tbaa !96
  %40 = load i32, ptr %13, align 4, !tbaa !11
  %41 = sext i32 %40 to i64
  %42 = getelementptr inbounds %struct.pmix_value, ptr %39, i64 %41
  %43 = call i32 @unpack_val(ptr noundef %37, ptr noundef %38, ptr noundef %42)
  store i32 %43, ptr %15, align 4, !tbaa !11
  %44 = icmp ne i32 0, %43
  br i1 %44, label %45, label %47

45:                                               ; preds = %36
  %46 = load i32, ptr %15, align 4, !tbaa !11
  store i32 %46, ptr %6, align 4
  store i32 1, ptr %16, align 4
  br label %52

47:                                               ; preds = %36
  br label %48

48:                                               ; preds = %47
  %49 = load i32, ptr %13, align 4, !tbaa !11
  %50 = add nsw i32 %49, 1
  store i32 %50, ptr %13, align 4, !tbaa !11
  br label %20, !llvm.loop !98

51:                                               ; preds = %20
  store i32 0, ptr %6, align 4
  store i32 1, ptr %16, align 4
  br label %52

52:                                               ; preds = %51, %45, %34
  call void @llvm.lifetime.end.p0(i64 4, ptr %15) #11
  call void @llvm.lifetime.end.p0(i64 4, ptr %14) #11
  call void @llvm.lifetime.end.p0(i64 4, ptr %13) #11
  call void @llvm.lifetime.end.p0(i64 8, ptr %12) #11
  %53 = load i32, ptr %6, align 4
  ret i32 %53
}