; Function Attrs: nounwind uwtable
define i32 @pmix20_bfrop_unpack_value(ptr noundef %0, ptr noundef %1, ptr noundef %2, ptr noundef readonly captures(none) %3, i16 noundef zeroext %4) local_unnamed_addr #0 {
  %6 = load i32, ptr %3, align 4, !tbaa !3
  %7 = icmp sgt i32 %6, 0
  br i1 %7, label %.lr.ph.preheader, label %._crit_edge

.lr.ph.preheader:                                 ; preds = %5
  %wide.trip.count = zext nneg i32 %6 to i64
  br label %.lr.ph

8:                                                ; preds = %11
  %indvars.iv.next = add nuw nsw i64 %indvars.iv, 1
  %exitcond.not = icmp eq i64 %indvars.iv.next, %wide.trip.count
  br i1 %exitcond.not, label %._crit_edge, label %.lr.ph, !llvm.loop !69

.lr.ph:                                           ; preds = %.lr.ph.preheader, %8
  %indvars.iv = phi i64 [ 0, %.lr.ph.preheader ], [ %indvars.iv.next, %8 ]
  %9 = getelementptr inbounds nuw %struct.pmix_value, ptr %2, i64 %indvars.iv
  %10 = tail call i32 @pmix20_bfrop_get_data_type(ptr noundef %0, ptr noundef %1, ptr noundef %9) #10
  %.not = icmp eq i32 %10, 0
  br i1 %.not, label %11, label %._crit_edge

11:                                               ; preds = %.lr.ph
  %12 = tail call fastcc i32 @unpack_val(ptr noundef %0, ptr noundef %1, ptr noundef %9)
  %.not18 = icmp eq i32 %12, 0
  br i1 %.not18, label %8, label %._crit_edge

._crit_edge:                                      ; preds = %.lr.ph, %11, %8, %5
  %.0 = phi i32 [ 0, %5 ], [ 0, %8 ], [ %12, %11 ], [ %10, %.lr.ph ]
  ret i32 %.0
}